target datalayout = "e-m:e-p270:32:32-p271:32:32-p272:64:64-i64:64-i128:128-f80:128-n8:16:32:64-S128"
target triple = "x86_64-pc-linux-gnu"

%struct.pointf_s = type { double, double }
%struct.boxf = type { %struct.pointf_s, %struct.pointf_s }
%struct.htmldata_t = type { ptr, ptr, ptr, ptr, ptr, ptr, ptr, i32, i8, i8, i8, i8, i16, i16, i16, %struct.htmlstyle_t, %struct.boxf }
%struct.htmlstyle_t = type { i8 }

; Function Attrs: nounwind uwtable
define void @free_html_data(ptr noundef %0) #0 {
  %2 = alloca ptr, align 8
  store ptr %0, ptr %2, align 8, !tbaa !103
  %3 = load ptr, ptr %2, align 8, !tbaa !103
  %4 = getelementptr inbounds nuw %struct.htmldata_t, ptr %3, i32 0, i32 0
  %5 = load ptr, ptr %4, align 8, !tbaa !135
  call void @free(ptr noundef %5) #14
  %6 = load ptr, ptr %2, align 8, !tbaa !103
  %7 = getelementptr inbounds nuw %struct.htmldata_t, ptr %6, i32 0, i32 1
  %8 = load ptr, ptr %7, align 8, !tbaa !136
  call void @free(ptr noundef %8) #14
  %9 = load ptr, ptr %2, align 8, !tbaa !103
  %10 = getelementptr inbounds nuw %struct.htmldata_t, ptr %9, i32 0, i32 2
  %11 = load ptr, ptr %10, align 8, !tbaa !137
  call void @free(ptr noundef %11) #14
  %12 = load ptr, ptr %2, align 8, !tbaa !103
  %13 = getelementptr inbounds nuw %struct.htmldata_t, ptr %12, i32 0, i32 4
  %14 = load ptr, ptr %13, align 8, !tbaa !138
  call void @free(ptr noundef %14) #14
  %15 = load ptr, ptr %2, align 8, !tbaa !103
  %16 = getelementptr inbounds nuw %struct.htmldata_t, ptr %15, i32 0, i32 3
  %17 = load ptr, ptr %16, align 8, !tbaa !139
  call void @free(ptr noundef %17) #14
  %18 = load ptr, ptr %2, align 8, !tbaa !103
  %19 = getelementptr inbounds nuw %struct.htmldata_t, ptr %18, i32 0, i32 5
  %20 = load ptr, ptr %19, align 8, !tbaa !140
  call void @free(ptr noundef %20) #14
  %21 = load ptr, ptr %2, align 8, !tbaa !103
  %22 = getelementptr inbounds nuw %struct.htmldata_t, ptr %21, i32 0, i32 6
  %23 = load ptr, ptr %22, align 8, !tbaa !141
  call void @free(ptr noundef %23) #14
  ret void
}