; Function Attrs: mustprogress nounwind willreturn uwtable
define void @free_html_data(ptr noundef readonly captures(none) %0) local_unnamed_addr #5 {
  %2 = load ptr, ptr %0, align 8, !tbaa !156
  tail call void @free(ptr noundef %2) #23
  %3 = getelementptr inbounds nuw i8, ptr %0, i64 8
  %4 = load ptr, ptr %3, align 8, !tbaa !157
  tail call void @free(ptr noundef %4) #23
  %5 = getelementptr inbounds nuw i8, ptr %0, i64 16
  %6 = load ptr, ptr %5, align 8, !tbaa !158
  tail call void @free(ptr noundef %6) #23
  %7 = getelementptr inbounds nuw i8, ptr %0, i64 32
  %8 = load ptr, ptr %7, align 8, !tbaa !159
  tail call void @free(ptr noundef %8) #23
  %9 = getelementptr inbounds nuw i8, ptr %0, i64 24
  %10 = load ptr, ptr %9, align 8, !tbaa !160
  tail call void @free(ptr noundef %10) #23
  %11 = getelementptr inbounds nuw i8, ptr %0, i64 40
  %12 = load ptr, ptr %11, align 8, !tbaa !161
  tail call void @free(ptr noundef %12) #23
  %13 = getelementptr inbounds nuw i8, ptr %0, i64 48
  %14 = load ptr, ptr %13, align 8, !tbaa !162
  tail call void @free(ptr noundef %14) #23
  ret void
}